target datalayout = "e-m:e-p270:32:32-p271:32:32-p272:64:64-i64:64-i128:128-f80:128-n8:16:32:64-S128"
target triple = "x86_64-pc-linux-gnu"

%struct.Curl_easy = type { i32, i64, i64, ptr, %struct.Curl_llist_node, %struct.Curl_llist_node, i32, i32, %struct.Curl_message, %struct.easy_pollset, %struct.Names, ptr, ptr, ptr, ptr, %struct.SingleRequest, %struct.UserDefined, ptr, ptr, ptr, %struct.Progress, %struct.UrlState, ptr, %struct.PureInfo, %struct.curl_tlssessioninfo }
%struct.Curl_llist_node = type { ptr, ptr, ptr, ptr }
%struct.Curl_message = type { %struct.Curl_llist_node, %struct.CURLMsg }
%struct.CURLMsg = type { i32, ptr, %union.anon }
%union.anon = type { ptr }
%struct.easy_pollset = type { [5 x i32], i32, [5 x i8] }
%struct.Names = type { ptr, i32 }
%struct.SingleRequest = type <{ i64, i64, i64, i64, %struct.curltime, i32, i32, i32, i32, i64, i32, i32, i8, i8, [2 x i8], i32, ptr, ptr, %struct.bufq, i64, i64, ptr, ptr, %union.anon.0, ptr, i8, i32, [3 x i8] }>
%struct.curltime = type { i64, i32 }
%struct.bufq = type { ptr, ptr, ptr, ptr, i64, i64, i64, i32 }
%union.anon.0 = type { ptr }
%struct.UserDefined = type <{ ptr, ptr, ptr, ptr, ptr, ptr, i64, i64, i64, ptr, ptr, i64, ptr, ptr, ptr, ptr, ptr, ptr, ptr, ptr, ptr, ptr, ptr, ptr, ptr, ptr, ptr, ptr, ptr, ptr, ptr, ptr, ptr, ptr, ptr, i64, i64, i64, i64, i64, i64, i64, i64, i64, ptr, ptr, %struct.curl_mimepart, ptr, ptr, ptr, i64, %struct.ssl_config_data, %struct.ssl_config_data, ptr, i16, i8, i8, %struct.ssl_general_config, i32, i32, i32, [4 x i8], ptr, ptr, i64, i32, i8, i8, i8, i8, ptr, ptr, ptr, i32, [4 x i8], [74 x ptr], [8 x ptr], i32, i32, i32, [4 x i8], ptr, i32, [4 x i8], ptr, ptr, ptr, ptr, ptr, i32, i32, i32, i32, i32, i32, i32, i32, i64, ptr, ptr, i64, ptr, i64, ptr, ptr, ptr, ptr, i32, i16, i16, i16, i8, i8, i8, i8, i8, i8, i8, i8, i64, [6 x i8] }>
%struct.curl_mimepart = type { ptr, ptr, i32, i32, ptr, ptr, ptr, ptr, ptr, ptr, ptr, ptr, ptr, ptr, ptr, i64, %struct.mime_state, ptr, %struct.mime_encoder_state, i64 }
%struct.mime_state = type { i32, ptr, i64 }
%struct.mime_encoder_state = type { i64, i64, i64, [256 x i8] }
%struct.ssl_config_data = type { %struct.ssl_primary_config, i64, ptr, ptr, ptr, ptr, ptr, ptr, ptr, i16 }
%struct.ssl_primary_config = type { ptr, ptr, ptr, ptr, ptr, ptr, ptr, ptr, ptr, ptr, ptr, ptr, ptr, ptr, i8, i32, i8, i8 }
%struct.ssl_general_config = type { i32 }
%struct.Progress = type { i64, %struct.pgrs_dir, %struct.pgrs_dir, i64, i64, i32, i32, i64, i64, i64, i64, i64, i64, i64, i64, i64, %struct.curltime, %struct.curltime, %struct.curltime, %struct.curltime, %struct.curltime, [6 x i64], [6 x %struct.curltime], i32, i8 }
%struct.pgrs_dir = type { i64, i64, i64, %struct.pgrs_measure }
%struct.pgrs_measure = type { %struct.curltime, i64 }
%struct.UrlState = type { %struct.curltime, i64, i64, %struct.dynbuf, ptr, i64, ptr, i32, i32, i32, ptr, i32, i64, i32, ptr, %struct.digestdata, %struct.digestdata, %struct.auth, %struct.auth, %struct.Curl_async, ptr, i8, %struct.curltime, %struct.Curl_tree, %struct.Curl_llist, [15 x %struct.time_node], ptr, ptr, i64, i64, i64, i64, [32 x i8], i64, ptr, ptr, ptr, %struct.urlpieces, ptr, ptr, ptr, ptr, ptr, i64, %struct.dynbuf, %struct.Curl_llist, [2 x %struct.curl_header], ptr, i32, ptr, ptr, %struct.store_netrc, %struct.dynamically_allocated_data, i8, i8, i8, i8, i32 }
%struct.digestdata = type { ptr, ptr, ptr, ptr, ptr, ptr, i32, i8, i8 }
%struct.auth = type { i64, i64, i64, i8 }
%struct.Curl_async = type { ptr, ptr, ptr, ptr, i32, i32, i8 }
%struct.Curl_tree = type { ptr, ptr, ptr, ptr, %struct.curltime, ptr }
%struct.time_node = type { %struct.Curl_llist_node, %struct.curltime, i32 }
%struct.urlpieces = type { ptr, ptr, ptr, ptr, ptr, ptr, ptr, ptr }
%struct.dynbuf = type { ptr, i64, i64, i64 }
%struct.Curl_llist = type { ptr, ptr, ptr, i64 }
%struct.curl_header = type { ptr, ptr, i64, i64, i32, ptr }
%struct.store_netrc = type { %struct.dynbuf, ptr, i8 }
%struct.dynamically_allocated_data = type { ptr, ptr, ptr, ptr, ptr, ptr, ptr, ptr, ptr, ptr, ptr, ptr, ptr, ptr }
%struct.PureInfo = type { i32, i32, i32, i64, i64, i64, i64, i64, i64, i64, ptr, ptr, i64, i32, %struct.ip_quadruple, i32, ptr, i32, %struct.curl_certinfo, i32, i8 }
%struct.ip_quadruple = type { [46 x i8], [46 x i8], i32, i32 }
%struct.curl_certinfo = type { i32, ptr }
%struct.curl_tlssessioninfo = type { i32, ptr }
%struct.curl_trc_feat = type { ptr, i32 }
%struct.Curl_creader = type { ptr, ptr, ptr, i32 }
%struct.cr_exp100_ctx = type { %struct.Curl_creader, %struct.curltime, i32 }

@.str.123 = private unnamed_addr constant [30 x i8] c"Done waiting for 100-continue\00", align 1

; Function Attrs: nounwind uwtable
define internal void @http_exp100_continue(ptr noundef %0, ptr noundef %1) #0 {
  %3 = alloca ptr, align 8
  %4 = alloca ptr, align 8
  %5 = alloca ptr, align 8
  store ptr %0, ptr %3, align 8, !tbaa !3
  store ptr %1, ptr %4, align 8, !tbaa !278
  call void @llvm.lifetime.start.p0(i64 8, ptr %5) #7
  %6 = load ptr, ptr %4, align 8, !tbaa !278
  %7 = getelementptr inbounds nuw %struct.Curl_creader, ptr %6, i32 0, i32 2
  %8 = load ptr, ptr %7, align 8, !tbaa !279
  store ptr %8, ptr %5, align 8, !tbaa !282
  %9 = load ptr, ptr %5, align 8, !tbaa !282
  %10 = getelementptr inbounds nuw %struct.cr_exp100_ctx, ptr %9, i32 0, i32 2
  %11 = load i32, ptr %10, align 8, !tbaa !284
  %12 = icmp ugt i32 %11, 0
  br i1 %12, label %13, label %27

13:                                               ; preds = %2
  %14 = load ptr, ptr %5, align 8, !tbaa !282
  %15 = getelementptr inbounds nuw %struct.cr_exp100_ctx, ptr %14, i32 0, i32 2
  store i32 0, ptr %15, align 8, !tbaa !284
  %16 = load ptr, ptr %3, align 8, !tbaa !3
  %17 = getelementptr inbounds nuw %struct.Curl_easy, ptr %16, i32 0, i32 15
  %18 = getelementptr inbounds nuw %struct.SingleRequest, ptr %17, i32 0, i32 11
  %19 = load i32, ptr %18, align 4, !tbaa !288
  %20 = or i32 %19, 2
  store i32 %20, ptr %18, align 4, !tbaa !288
  %21 = load ptr, ptr %3, align 8, !tbaa !3
  %22 = getelementptr inbounds nuw %struct.Curl_easy, ptr %21, i32 0, i32 15
  %23 = getelementptr inbounds nuw %struct.SingleRequest, ptr %22, i32 0, i32 11
  %24 = load i32, ptr %23, align 4, !tbaa !288
  %25 = and i32 %24, -65
  store i32 %25, ptr %23, align 4, !tbaa !288
  %26 = load ptr, ptr %3, align 8, !tbaa !3
  call void @Curl_expire_done(ptr noundef %26, i32 noundef 0)
  br label %27

27:                                               ; preds = %13, %2
  call void @llvm.lifetime.end.p0(i64 8, ptr %5) #7
  ret void
}

; Function Attrs: nounwind uwtable
define internal i32 @cr_exp100_read(ptr noundef %0, ptr noundef %1, ptr noundef %2, i64 noundef %3, ptr noundef %4, ptr noundef %5) #0 {
  %7 = alloca i32, align 4
  %8 = alloca ptr, align 8
  %9 = alloca ptr, align 8
  %10 = alloca ptr, align 8
  %11 = alloca i64, align 8
  %12 = alloca ptr, align 8
  %13 = alloca ptr, align 8
  %14 = alloca ptr, align 8
  %15 = alloca i64, align 8
  %16 = alloca i32, align 4
  %17 = alloca %struct.curltime, align 8
  %18 = alloca %struct.curltime, align 8
  store ptr %0, ptr %8, align 8, !tbaa !3
  store ptr %1, ptr %9, align 8, !tbaa !278
  store ptr %2, ptr %10, align 8, !tbaa !82
  store i64 %3, ptr %11, align 8, !tbaa !119
  store ptr %4, ptr %12, align 8, !tbaa !169
  store ptr %5, ptr %13, align 8, !tbaa !79
  call void @llvm.lifetime.start.p0(i64 8, ptr %14) #7
  %19 = load ptr, ptr %9, align 8, !tbaa !278
  %20 = getelementptr inbounds nuw %struct.Curl_creader, ptr %19, i32 0, i32 2
  %21 = load ptr, ptr %20, align 8, !tbaa !279
  store ptr %21, ptr %14, align 8, !tbaa !282
  call void @llvm.lifetime.start.p0(i64 8, ptr %15) #7
  %22 = load ptr, ptr %14, align 8, !tbaa !282
  %23 = getelementptr inbounds nuw %struct.cr_exp100_ctx, ptr %22, i32 0, i32 2
  %24 = load i32, ptr %23, align 8, !tbaa !284
  switch i32 %24, label %143 [
    i32 2, label %25
    i32 3, label %64
    i32 1, label %70
  ]

25:                                               ; preds = %6
  %26 = load ptr, ptr %8, align 8, !tbaa !3
  %27 = call zeroext i1 @Curl_req_sendbuf_empty(ptr noundef %26)
  br i1 %27, label %34, label %28

28:                                               ; preds = %25
  br label %29

29:                                               ; preds = %28
  br label %30

30:                                               ; preds = %29
  br label %31

31:                                               ; preds = %30
  %32 = load ptr, ptr %12, align 8, !tbaa !169
  store i64 0, ptr %32, align 8, !tbaa !119
  %33 = load ptr, ptr %13, align 8, !tbaa !79
  store i8 0, ptr %33, align 1, !tbaa !83
  store i32 0, ptr %7, align 4
  store i32 1, ptr %16, align 4
  br label %156

34:                                               ; preds = %25
  br label %35

35:                                               ; preds = %34
  br label %36

36:                                               ; preds = %35
  br label %37

37:                                               ; preds = %36
  %38 = load ptr, ptr %14, align 8, !tbaa !282
  %39 = getelementptr inbounds nuw %struct.cr_exp100_ctx, ptr %38, i32 0, i32 2
  store i32 1, ptr %39, align 8, !tbaa !284
  %40 = load ptr, ptr %14, align 8, !tbaa !282
  %41 = getelementptr inbounds nuw %struct.cr_exp100_ctx, ptr %40, i32 0, i32 1
  call void @llvm.lifetime.start.p0(i64 16, ptr %17) #7
  %42 = call { i64, i32 } @Curl_now()
  %43 = getelementptr inbounds nuw { i64, i32 }, ptr %17, i32 0, i32 0
  %44 = extractvalue { i64, i32 } %42, 0
  store i64 %44, ptr %43, align 8
  %45 = getelementptr inbounds nuw { i64, i32 }, ptr %17, i32 0, i32 1
  %46 = extractvalue { i64, i32 } %42, 1
  store i32 %46, ptr %45, align 8
  call void @llvm.memcpy.p0.p0.i64(ptr align 8 %41, ptr align 8 %17, i64 16, i1 false), !tbaa.struct !286
  call void @llvm.lifetime.end.p0(i64 16, ptr %17) #7
  %47 = load ptr, ptr %8, align 8, !tbaa !3
  %48 = load ptr, ptr %8, align 8, !tbaa !3
  %49 = getelementptr inbounds nuw %struct.Curl_easy, ptr %48, i32 0, i32 16
  %50 = getelementptr inbounds nuw %struct.UserDefined, ptr %49, i32 0, i32 97
  %51 = load i64, ptr %50, align 8, !tbaa !287
  call void @Curl_expire(ptr noundef %47, i64 noundef %51, i32 noundef 0)
  %52 = load ptr, ptr %8, align 8, !tbaa !3
  %53 = getelementptr inbounds nuw %struct.Curl_easy, ptr %52, i32 0, i32 15
  %54 = getelementptr inbounds nuw %struct.SingleRequest, ptr %53, i32 0, i32 11
  %55 = load i32, ptr %54, align 4, !tbaa !288
  %56 = and i32 %55, -3
  store i32 %56, ptr %54, align 4, !tbaa !288
  %57 = load ptr, ptr %8, align 8, !tbaa !3
  %58 = getelementptr inbounds nuw %struct.Curl_easy, ptr %57, i32 0, i32 15
  %59 = getelementptr inbounds nuw %struct.SingleRequest, ptr %58, i32 0, i32 11
  %60 = load i32, ptr %59, align 4, !tbaa !288
  %61 = or i32 %60, 64
  store i32 %61, ptr %59, align 4, !tbaa !288
  %62 = load ptr, ptr %12, align 8, !tbaa !169
  store i64 0, ptr %62, align 8, !tbaa !119
  %63 = load ptr, ptr %13, align 8, !tbaa !79
  store i8 0, ptr %63, align 1, !tbaa !83
  store i32 0, ptr %7, align 4
  store i32 1, ptr %16, align 4
  br label %156

64:                                               ; preds = %6
  br label %65

65:                                               ; preds = %64
  br label %66

66:                                               ; preds = %65
  br label %67

67:                                               ; preds = %66
  %68 = load ptr, ptr %12, align 8, !tbaa !169
  store i64 0, ptr %68, align 8, !tbaa !119
  %69 = load ptr, ptr %13, align 8, !tbaa !79
  store i8 0, ptr %69, align 1, !tbaa !83
  store i32 26, ptr %7, align 4
  store i32 1, ptr %16, align 4
  br label %156

70:                                               ; preds = %6
  %71 = call { i64, i32 } @Curl_now()
  %72 = getelementptr inbounds nuw { i64, i32 }, ptr %18, i32 0, i32 0
  %73 = extractvalue { i64, i32 } %71, 0
  store i64 %73, ptr %72, align 8
  %74 = getelementptr inbounds nuw { i64, i32 }, ptr %18, i32 0, i32 1
  %75 = extractvalue { i64, i32 } %71, 1
  store i32 %75, ptr %74, align 8
  %76 = load ptr, ptr %14, align 8, !tbaa !282
  %77 = getelementptr inbounds nuw %struct.cr_exp100_ctx, ptr %76, i32 0, i32 1
  %78 = getelementptr inbounds nuw { i64, i32 }, ptr %18, i32 0, i32 0
  %79 = load i64, ptr %78, align 8
  %80 = getelementptr inbounds nuw { i64, i32 }, ptr %18, i32 0, i32 1
  %81 = load i32, ptr %80, align 8
  %82 = getelementptr inbounds nuw { i64, i32 }, ptr %77, i32 0, i32 0
  %83 = load i64, ptr %82, align 8
  %84 = getelementptr inbounds nuw { i64, i32 }, ptr %77, i32 0, i32 1
  %85 = load i32, ptr %84, align 8
  %86 = call i64 @Curl_timediff(i64 %79, i32 %81, i64 %83, i32 %85)
  store i64 %86, ptr %15, align 8, !tbaa !119
  %87 = load i64, ptr %15, align 8, !tbaa !119
  %88 = load ptr, ptr %8, align 8, !tbaa !3
  %89 = getelementptr inbounds nuw %struct.Curl_easy, ptr %88, i32 0, i32 16
  %90 = getelementptr inbounds nuw %struct.UserDefined, ptr %89, i32 0, i32 97
  %91 = load i64, ptr %90, align 8, !tbaa !287
  %92 = icmp slt i64 %87, %91
  br i1 %92, label %93, label %109

93:                                               ; preds = %70
  br label %94

94:                                               ; preds = %93
  br label %95

95:                                               ; preds = %94
  br label %96

96:                                               ; preds = %95
  %97 = load ptr, ptr %8, align 8, !tbaa !3
  %98 = getelementptr inbounds nuw %struct.Curl_easy, ptr %97, i32 0, i32 15
  %99 = getelementptr inbounds nuw %struct.SingleRequest, ptr %98, i32 0, i32 11
  %100 = load i32, ptr %99, align 4, !tbaa !288
  %101 = and i32 %100, -3
  store i32 %101, ptr %99, align 4, !tbaa !288
  %102 = load ptr, ptr %8, align 8, !tbaa !3
  %103 = getelementptr inbounds nuw %struct.Curl_easy, ptr %102, i32 0, i32 15
  %104 = getelementptr inbounds nuw %struct.SingleRequest, ptr %103, i32 0, i32 11
  %105 = load i32, ptr %104, align 4, !tbaa !288
  %106 = or i32 %105, 64
  store i32 %106, ptr %104, align 4, !tbaa !288
  %107 = load ptr, ptr %12, align 8, !tbaa !169
  store i64 0, ptr %107, align 8, !tbaa !119
  %108 = load ptr, ptr %13, align 8, !tbaa !79
  store i8 0, ptr %108, align 1, !tbaa !83
  store i32 0, ptr %7, align 4
  store i32 1, ptr %16, align 4
  br label %156

109:                                              ; preds = %70
  %110 = load ptr, ptr %8, align 8, !tbaa !3
  %111 = load ptr, ptr %9, align 8, !tbaa !278
  call void @http_exp100_continue(ptr noundef %110, ptr noundef %111)
  br label %112

112:                                              ; preds = %109
  %113 = load ptr, ptr %8, align 8, !tbaa !3
  %114 = icmp ne ptr %113, null
  br i1 %114, label %115, label %140

115:                                              ; preds = %112
  %116 = load ptr, ptr %8, align 8, !tbaa !3
  %117 = getelementptr inbounds nuw %struct.Curl_easy, ptr %116, i32 0, i32 16
  %118 = getelementptr inbounds nuw %struct.UserDefined, ptr %117, i32 0, i32 119
  %119 = load i64, ptr %118, align 2
  %120 = lshr i64 %119, 31
  %121 = and i64 %120, 1
  %122 = trunc i64 %121 to i32
  %123 = icmp ne i32 %122, 0
  br i1 %123, label %124, label %140

124:                                              ; preds = %115
  %125 = load ptr, ptr %8, align 8, !tbaa !3
  %126 = getelementptr inbounds nuw %struct.Curl_easy, ptr %125, i32 0, i32 21
  %127 = getelementptr inbounds nuw %struct.UrlState, ptr %126, i32 0, i32 50
  %128 = load ptr, ptr %127, align 8, !tbaa !129
  %129 = icmp ne ptr %128, null
  br i1 %129, label %130, label %138

130:                                              ; preds = %124
  %131 = load ptr, ptr %8, align 8, !tbaa !3
  %132 = getelementptr inbounds nuw %struct.Curl_easy, ptr %131, i32 0, i32 21
  %133 = getelementptr inbounds nuw %struct.UrlState, ptr %132, i32 0, i32 50
  %134 = load ptr, ptr %133, align 8, !tbaa !129
  %135 = getelementptr inbounds nuw %struct.curl_trc_feat, ptr %134, i32 0, i32 1
  %136 = load i32, ptr %135, align 8, !tbaa !130
  %137 = icmp sge i32 %136, 1
  br i1 %137, label %138, label %140

138:                                              ; preds = %130, %124
  %139 = load ptr, ptr %8, align 8, !tbaa !3
  call void (ptr, ptr, ...) @Curl_infof(ptr noundef %139, ptr noundef @.str.123)
  br label %140

140:                                              ; preds = %138, %130, %115, %112
  br label %141

141:                                              ; preds = %140
  br label %142

142:                                              ; preds = %141
  br label %143

143:                                              ; preds = %6, %142
  br label %144

144:                                              ; preds = %143
  br label %145

145:                                              ; preds = %144
  br label %146

146:                                              ; preds = %145
  %147 = load ptr, ptr %8, align 8, !tbaa !3
  %148 = load ptr, ptr %9, align 8, !tbaa !278
  %149 = getelementptr inbounds nuw %struct.Curl_creader, ptr %148, i32 0, i32 1
  %150 = load ptr, ptr %149, align 8, !tbaa !289
  %151 = load ptr, ptr %10, align 8, !tbaa !82
  %152 = load i64, ptr %11, align 8, !tbaa !119
  %153 = load ptr, ptr %12, align 8, !tbaa !169
  %154 = load ptr, ptr %13, align 8, !tbaa !79
  %155 = call i32 @Curl_creader_read(ptr noundef %147, ptr noundef %150, ptr noundef %151, i64 noundef %152, ptr noundef %153, ptr noundef %154)
  store i32 %155, ptr %7, align 4
  store i32 1, ptr %16, align 4
  br label %156

156:                                              ; preds = %146, %96, %67, %37, %31
  call void @llvm.lifetime.end.p0(i64 8, ptr %15) #7
  call void @llvm.lifetime.end.p0(i64 8, ptr %14) #7
  %157 = load i32, ptr %7, align 4
  ret i32 %157
}